target datalayout = "e-m:e-p270:32:32-p271:32:32-p272:64:64-i64:64-i128:128-f80:128-n8:16:32:64-S128"
target triple = "x86_64-pc-linux-gnu"

%struct.Vec_Int_t_ = type { i32, i32, ptr }
%struct.Abc_Cex_t_ = type { i32, i32, i32, i32, i32, [0 x i32] }
%struct.Vec_Wrd_t_ = type { i32, i32, ptr }

@.str.2 = private unnamed_addr constant [22 x i8] c"Obj %5d  Fanin %5d : \00", align 1
@.str.4 = private unnamed_addr constant [11 x i8] c"Frame %d:\0A\00", align 1
@stdout = external global ptr, align 8
@.str.5 = private unnamed_addr constant [2 x i8] c"\0A\00", align 1

; Function Attrs: inlinehint nounwind uwtable
define internal ptr @Vec_WrdAlloc(i32 noundef %0) #2 {
  %2 = alloca i32, align 4
  %3 = alloca ptr, align 8
  store i32 %0, ptr %2, align 4, !tbaa !8
  call void @llvm.lifetime.start.p0(i64 8, ptr %3) #12
  %4 = call noalias ptr @malloc(i64 noundef 16) #13
  store ptr %4, ptr %3, align 8, !tbaa !94
  %5 = load i32, ptr %2, align 4, !tbaa !8
  %6 = icmp sgt i32 %5, 0
  br i1 %6, label %7, label %11

7:                                                ; preds = %1
  %8 = load i32, ptr %2, align 4, !tbaa !8
  %9 = icmp slt i32 %8, 16
  br i1 %9, label %10, label %11

10:                                               ; preds = %7
  store i32 16, ptr %2, align 4, !tbaa !8
  br label %11

11:                                               ; preds = %10, %7, %1
  %12 = load ptr, ptr %3, align 8, !tbaa !94
  %13 = getelementptr inbounds nuw %struct.Vec_Wrd_t_, ptr %12, i32 0, i32 1
  store i32 0, ptr %13, align 4, !tbaa !129
  %14 = load i32, ptr %2, align 4, !tbaa !8
  %15 = load ptr, ptr %3, align 8, !tbaa !94
  %16 = getelementptr inbounds nuw %struct.Vec_Wrd_t_, ptr %15, i32 0, i32 0
  store i32 %14, ptr %16, align 8, !tbaa !192
  %17 = load ptr, ptr %3, align 8, !tbaa !94
  %18 = getelementptr inbounds nuw %struct.Vec_Wrd_t_, ptr %17, i32 0, i32 0
  %19 = load i32, ptr %18, align 8, !tbaa !192
  %20 = icmp ne i32 %19, 0
  br i1 %20, label %21, label %28

21:                                               ; preds = %11
  %22 = load ptr, ptr %3, align 8, !tbaa !94
  %23 = getelementptr inbounds nuw %struct.Vec_Wrd_t_, ptr %22, i32 0, i32 0
  %24 = load i32, ptr %23, align 8, !tbaa !192
  %25 = sext i32 %24 to i64
  %26 = mul i64 8, %25
  %27 = call noalias ptr @malloc(i64 noundef %26) #13
  br label %29

28:                                               ; preds = %11
  br label %29

29:                                               ; preds = %28, %21
  %30 = phi ptr [ %27, %21 ], [ null, %28 ]
  %31 = load ptr, ptr %3, align 8, !tbaa !94
  %32 = getelementptr inbounds nuw %struct.Vec_Wrd_t_, ptr %31, i32 0, i32 2
  store ptr %30, ptr %32, align 8, !tbaa !119
  %33 = load ptr, ptr %3, align 8, !tbaa !94
  call void @llvm.lifetime.end.p0(i64 8, ptr %3) #12
  ret ptr %33
}

; Function Attrs: inlinehint nounwind uwtable
define internal i64 @Vec_WrdEntry(ptr noundef %0, i32 noundef %1) #2 {
  %3 = alloca ptr, align 8
  %4 = alloca i32, align 4
  store ptr %0, ptr %3, align 8, !tbaa !94
  store i32 %1, ptr %4, align 4, !tbaa !8
  %5 = load ptr, ptr %3, align 8, !tbaa !94
  %6 = getelementptr inbounds nuw %struct.Vec_Wrd_t_, ptr %5, i32 0, i32 2
  %7 = load ptr, ptr %6, align 8, !tbaa !119
  %8 = load i32, ptr %4, align 4, !tbaa !8
  %9 = sext i32 %8 to i64
  %10 = getelementptr inbounds i64, ptr %7, i64 %9
  %11 = load i64, ptr %10, align 8, !tbaa !113
  ret i64 %11
}

; Function Attrs: inlinehint nounwind uwtable
define internal i32 @Vec_WrdSize(ptr noundef %0) #2 {
  %2 = alloca ptr, align 8
  store ptr %0, ptr %2, align 8, !tbaa !94
  %3 = load ptr, ptr %2, align 8, !tbaa !94
  %4 = getelementptr inbounds nuw %struct.Vec_Wrd_t_, ptr %3, i32 0, i32 1
  %5 = load i32, ptr %4, align 4, !tbaa !129
  ret i32 %5
}

; Function Attrs: inlinehint nounwind uwtable
define internal ptr @Vec_WrdStartFull(i32 noundef %0) #2 {
  %2 = alloca i32, align 4
  %3 = alloca ptr, align 8
  store i32 %0, ptr %2, align 4, !tbaa !8
  call void @llvm.lifetime.start.p0(i64 8, ptr %3) #12
  %4 = load i32, ptr %2, align 4, !tbaa !8
  %5 = call ptr @Vec_WrdAlloc(i32 noundef %4)
  store ptr %5, ptr %3, align 8, !tbaa !94
  %6 = load i32, ptr %2, align 4, !tbaa !8
  %7 = load ptr, ptr %3, align 8, !tbaa !94
  %8 = getelementptr inbounds nuw %struct.Vec_Wrd_t_, ptr %7, i32 0, i32 1
  store i32 %6, ptr %8, align 4, !tbaa !129
  %9 = load ptr, ptr %3, align 8, !tbaa !94
  %10 = getelementptr inbounds nuw %struct.Vec_Wrd_t_, ptr %9, i32 0, i32 2
  %11 = load ptr, ptr %10, align 8, !tbaa !119
  %12 = load i32, ptr %2, align 4, !tbaa !8
  %13 = sext i32 %12 to i64
  %14 = mul i64 8, %13
  call void @llvm.memset.p0.i64(ptr align 8 %11, i8 -1, i64 %14, i1 false)
  %15 = load ptr, ptr %3, align 8, !tbaa !94
  call void @llvm.lifetime.end.p0(i64 8, ptr %3) #12
  ret ptr %15
}

; Function Attrs: inlinehint nounwind uwtable
define internal i32 @Vec_IntSize(ptr noundef %0) #2 {
  %2 = alloca ptr, align 8
  store ptr %0, ptr %2, align 8, !tbaa !10
  %3 = load ptr, ptr %2, align 8, !tbaa !10
  %4 = getelementptr inbounds nuw %struct.Vec_Int_t_, ptr %3, i32 0, i32 1
  %5 = load i32, ptr %4, align 4, !tbaa !31
  ret i32 %5
}

; Function Attrs: nounwind uwtable
define ptr @Wlc_NtkConvertCex(ptr noundef %0, ptr noundef %1, ptr noundef %2, i32 noundef %3) #0 {
  %5 = alloca ptr, align 8
  %6 = alloca ptr, align 8
  %7 = alloca ptr, align 8
  %8 = alloca i32, align 4
  %9 = alloca ptr, align 8
  %10 = alloca i32, align 4
  %11 = alloca i32, align 4
  %12 = alloca i32, align 4
  %13 = alloca i64, align 8
  store ptr %0, ptr %5, align 8, !tbaa !10
  store ptr %1, ptr %6, align 8, !tbaa !90
  store ptr %2, ptr %7, align 8, !tbaa !92
  store i32 %3, ptr %8, align 4, !tbaa !8
  call void @llvm.lifetime.start.p0(i64 8, ptr %9) #12
  %14 = load ptr, ptr %5, align 8, !tbaa !10
  %15 = call i32 @Vec_IntSize(ptr noundef %14)
  %16 = load ptr, ptr %7, align 8, !tbaa !92
  %17 = getelementptr inbounds nuw %struct.Abc_Cex_t_, ptr %16, i32 0, i32 1
  %18 = load i32, ptr %17, align 4, !tbaa !122
  %19 = add nsw i32 %18, 1
  %20 = mul nsw i32 %15, %19
  %21 = call ptr @Vec_WrdStartFull(i32 noundef %20)
  store ptr %21, ptr %9, align 8, !tbaa !94
  call void @llvm.lifetime.start.p0(i64 4, ptr %10) #12
  call void @llvm.lifetime.start.p0(i64 4, ptr %11) #12
  call void @llvm.lifetime.start.p0(i64 4, ptr %12) #12
  %22 = load ptr, ptr %7, align 8, !tbaa !92
  %23 = getelementptr inbounds nuw %struct.Abc_Cex_t_, ptr %22, i32 0, i32 2
  %24 = load i32, ptr %23, align 4, !tbaa !124
  store i32 %24, ptr %12, align 4, !tbaa !8
  call void @llvm.lifetime.start.p0(i64 8, ptr %13) #12
  %25 = load ptr, ptr %6, align 8, !tbaa !90
  call void @Gia_ManCleanMark0(ptr noundef %25)
  store i32 0, ptr %11, align 4, !tbaa !8
  br label %26

26:                                               ; preds = %40, %4
  %27 = load i32, ptr %11, align 4, !tbaa !8
  %28 = load ptr, ptr %7, align 8, !tbaa !92
  %29 = getelementptr inbounds nuw %struct.Abc_Cex_t_, ptr %28, i32 0, i32 1
  %30 = load i32, ptr %29, align 4, !tbaa !122
  %31 = icmp sle i32 %27, %30
  br i1 %31, label %32, label %43

32:                                               ; preds = %26
  %33 = load ptr, ptr %6, align 8, !tbaa !90
  %34 = load ptr, ptr %7, align 8, !tbaa !92
  %35 = load ptr, ptr %5, align 8, !tbaa !10
  %36 = load i32, ptr %12, align 4, !tbaa !8
  %37 = load ptr, ptr %9, align 8, !tbaa !94
  %38 = load i32, ptr %11, align 4, !tbaa !8
  %39 = call i32 @Wlc_NtkCexResim(ptr noundef %33, ptr noundef %34, ptr noundef %35, i32 noundef %36, ptr noundef %37, i32 noundef %38)
  store i32 %39, ptr %12, align 4, !tbaa !8
  br label %40

40:                                               ; preds = %32
  %41 = load i32, ptr %11, align 4, !tbaa !8
  %42 = add nsw i32 %41, 1
  store i32 %42, ptr %11, align 4, !tbaa !8
  br label %26, !llvm.loop !125

43:                                               ; preds = %26
  %44 = load i32, ptr %8, align 4, !tbaa !8
  %45 = icmp ne i32 %44, 0
  br i1 %45, label %46, label %82

46:                                               ; preds = %43
  store i32 0, ptr %10, align 4, !tbaa !8
  br label %47

47:                                               ; preds = %78, %46
  %48 = load i32, ptr %10, align 4, !tbaa !8
  %49 = load ptr, ptr %9, align 8, !tbaa !94
  %50 = call i32 @Vec_WrdSize(ptr noundef %49)
  %51 = icmp slt i32 %48, %50
  br i1 %51, label %52, label %56

52:                                               ; preds = %47
  %53 = load ptr, ptr %9, align 8, !tbaa !94
  %54 = load i32, ptr %10, align 4, !tbaa !8
  %55 = call i64 @Vec_WrdEntry(ptr noundef %53, i32 noundef %54)
  store i64 %55, ptr %13, align 8, !tbaa !113
  br label %56

56:                                               ; preds = %52, %47
  %57 = phi i1 [ false, %47 ], [ true, %52 ]
  br i1 %57, label %58, label %81

58:                                               ; preds = %56
  %59 = load i32, ptr %10, align 4, !tbaa !8
  %60 = load ptr, ptr %5, align 8, !tbaa !10
  %61 = call i32 @Vec_IntSize(ptr noundef %60)
  %62 = srem i32 %59, %61
  %63 = icmp eq i32 %62, 0
  br i1 %63, label %64, label %70

64:                                               ; preds = %58
  %65 = load i32, ptr %10, align 4, !tbaa !8
  %66 = load ptr, ptr %5, align 8, !tbaa !10
  %67 = call i32 @Vec_IntSize(ptr noundef %66)
  %68 = sdiv i32 %65, %67
  %69 = call i32 (ptr, ...) @printf(ptr noundef @.str.4, i32 noundef %68)
  br label %70

70:                                               ; preds = %64, %58
  %71 = load i32, ptr %10, align 4, !tbaa !8
  %72 = sdiv i32 %71, 3
  %73 = load i32, ptr %10, align 4, !tbaa !8
  %74 = srem i32 %73, 3
  %75 = call i32 (ptr, ...) @printf(ptr noundef @.str.2, i32 noundef %72, i32 noundef %74)
  %76 = load ptr, ptr @stdout, align 8, !tbaa !126
  call void @Extra_PrintBinary(ptr noundef %76, ptr noundef %13, i32 noundef 32)
  %77 = call i32 (ptr, ...) @printf(ptr noundef @.str.5)
  br label %78

78:                                               ; preds = %70
  %79 = load i32, ptr %10, align 4, !tbaa !8
  %80 = add nsw i32 %79, 1
  store i32 %80, ptr %10, align 4, !tbaa !8
  br label %47, !llvm.loop !128

81:                                               ; preds = %56
  br label %82

82:                                               ; preds = %81, %43
  %83 = load ptr, ptr %9, align 8, !tbaa !94
  call void @llvm.lifetime.end.p0(i64 8, ptr %13) #12
  call void @llvm.lifetime.end.p0(i64 4, ptr %12) #12
  call void @llvm.lifetime.end.p0(i64 4, ptr %11) #12
  call void @llvm.lifetime.end.p0(i64 4, ptr %10) #12
  call void @llvm.lifetime.end.p0(i64 8, ptr %9) #12
  ret ptr %83
}