; Function Attrs: nounwind uwtable
define noalias noundef ptr @Wlc_NtkConvertCex(ptr noundef readonly captures(none) %0, ptr noundef %1, ptr noundef readonly captures(none) %2, i32 noundef %3) local_unnamed_addr #0 {
  %5 = alloca i64, align 8
  %6 = getelementptr i8, ptr %0, i64 4
  %.val29 = load i32, ptr %6, align 4, !tbaa !26
  %7 = getelementptr inbounds nuw i8, ptr %2, i64 4
  %8 = load i32, ptr %7, align 4, !tbaa !108
  %9 = add nsw i32 %8, 1
  %10 = mul nsw i32 %9, %.val29
  %11 = tail call noalias dereferenceable_or_null(16) ptr @malloc(i64 noundef 16) #25
  %12 = add i32 %10, -1
  %or.cond.i.i = icmp ult i32 %12, 15
  %spec.store.select.i.i = select i1 %or.cond.i.i, i32 16, i32 %10
  store i32 %spec.store.select.i.i, ptr %11, align 8, !tbaa !110
  %.not.i.i = icmp eq i32 %spec.store.select.i.i, 0
  br i1 %.not.i.i, label %Vec_WrdStartFull.exit, label %13

13:                                               ; preds = %4
  %14 = sext i32 %spec.store.select.i.i to i64
  %15 = shl nsw i64 %14, 3
  %16 = tail call noalias ptr @malloc(i64 noundef %15) #25
  br label %Vec_WrdStartFull.exit

Vec_WrdStartFull.exit:                            ; preds = %4, %13
  %17 = phi ptr [ %16, %13 ], [ null, %4 ]
  %18 = getelementptr inbounds nuw i8, ptr %11, i64 4
  %19 = getelementptr inbounds nuw i8, ptr %11, i64 8
  store ptr %17, ptr %19, align 8, !tbaa !102
  store i32 %10, ptr %18, align 4, !tbaa !111
  %20 = sext i32 %10 to i64
  %21 = shl nsw i64 %20, 3
  tail call void @llvm.memset.p0.i64(ptr align 8 %17, i8 -1, i64 %21, i1 false)
  %22 = getelementptr inbounds nuw i8, ptr %2, i64 8
  %23 = load i32, ptr %22, align 4, !tbaa !112
  call void @llvm.lifetime.start.p0(i64 8, ptr nonnull %5) #26
  tail call void @Gia_ManCleanMark0(ptr noundef %1) #26
  %24 = load i32, ptr %7, align 4, !tbaa !108
  %.not32 = icmp slt i32 %24, 0
  br i1 %.not32, label %._crit_edge, label %.lr.ph

.lr.ph:                                           ; preds = %Vec_WrdStartFull.exit, %.lr.ph
  %.034 = phi i32 [ %25, %.lr.ph ], [ %23, %Vec_WrdStartFull.exit ]
  %.02533 = phi i32 [ %26, %.lr.ph ], [ 0, %Vec_WrdStartFull.exit ]
  %25 = tail call i32 @Wlc_NtkCexResim(ptr noundef %1, ptr noundef nonnull %2, ptr noundef %0, i32 noundef %.034, ptr noundef nonnull %11, i32 noundef %.02533)
  %26 = add nuw nsw i32 %.02533, 1
  %27 = load i32, ptr %7, align 4, !tbaa !108
  %.not.not = icmp slt i32 %.02533, %27
  br i1 %.not.not, label %.lr.ph, label %._crit_edge, !llvm.loop !113

._crit_edge:                                      ; preds = %.lr.ph, %Vec_WrdStartFull.exit
  %.not27 = icmp ne i32 %3, 0
  %28 = icmp sgt i32 %10, 0
  %or.cond = and i1 %.not27, %28
  br i1 %or.cond, label %.lr.ph36.preheader, label %.critedge

.lr.ph36.preheader:                               ; preds = %._crit_edge
  %wide.trip.count = zext nneg i32 %10 to i64
  br label %.lr.ph36

.lr.ph36:                                         ; preds = %.lr.ph36.preheader, %37
  %indvars.iv = phi i64 [ 0, %.lr.ph36.preheader ], [ %indvars.iv.next, %37 ]
  %29 = getelementptr inbounds nuw i64, ptr %17, i64 %indvars.iv
  %30 = load i64, ptr %29, align 8, !tbaa !106
  store i64 %30, ptr %5, align 8, !tbaa !106
  %.val28 = load i32, ptr %6, align 4, !tbaa !26
  %31 = trunc nuw nsw i64 %indvars.iv to i32
  %32 = srem i32 %31, %.val28
  %33 = sdiv i32 %31, %.val28
  %34 = icmp eq i32 %32, 0
  br i1 %34, label %35, label %37

35:                                               ; preds = %.lr.ph36
  %36 = call i32 (ptr, ...) @printf(ptr noundef nonnull dereferenceable(1) @.str.4, i32 noundef %33)
  br label %37

37:                                               ; preds = %35, %.lr.ph36
  %38 = udiv i32 %31, 3
  %39 = urem i32 %31, 3
  %40 = call i32 (ptr, ...) @printf(ptr noundef nonnull dereferenceable(1) @.str.2, i32 noundef %38, i32 noundef %39)
  %41 = load ptr, ptr @stdout, align 8, !tbaa !114
  call void @Extra_PrintBinary(ptr noundef %41, ptr noundef nonnull %5, i32 noundef 32) #26
  %putchar = call i32 @putchar(i32 10)
  %indvars.iv.next = add nuw nsw i64 %indvars.iv, 1
  %exitcond.not = icmp eq i64 %indvars.iv.next, %wide.trip.count
  br i1 %exitcond.not, label %.critedge, label %.lr.ph36, !llvm.loop !116

.critedge:                                        ; preds = %37, %._crit_edge
  call void @llvm.lifetime.end.p0(i64 8, ptr nonnull %5) #26
  ret ptr %11
}